; Function Attrs: mustprogress uwtable
define internal fastcc void @_ZL23TopLevelCMakeVarCondSetR10cmMakefileRKNSt7__cxx1112basic_stringIcSt11char_traitsIcESaIcEEES8_(ptr noundef nonnull align 8 dereferenceable(3520) %0, ptr noundef nonnull align 8 dereferenceable(32) %1, ptr noundef nonnull align 8 dereferenceable(32) %2) unnamed_addr #3 personality ptr @__gxx_personality_v0 {
  %4 = alloca %"class.std::__cxx11::basic_string", align 8
  %5 = alloca %"class.std::allocator.0", align 1
  %6 = tail call ptr @_ZNK10cmMakefile13GetDefinitionERKNSt7__cxx1112basic_stringIcSt11char_traitsIcESaIcEEE(ptr noundef nonnull align 8 dereferenceable(3520) %0, ptr noundef nonnull align 8 dereferenceable(32) %1)
  %.not = icmp eq ptr %6, null
  br i1 %.not, label %.critedge, label %7

7:                                                ; preds = %3
  %8 = tail call noundef zeroext i1 @_ZNK10cmMakefile14IsRootMakefileEv(ptr noundef nonnull align 8 dereferenceable(3520) %0)
  br i1 %8, label %.critedge, label %16

.critedge:                                        ; preds = %3, %7
  tail call void @_ZN10cmMakefile16RemoveDefinitionERKNSt7__cxx1112basic_stringIcSt11char_traitsIcESaIcEEE(ptr noundef nonnull align 8 dereferenceable(3520) %0, ptr noundef nonnull align 8 dereferenceable(32) %1)
  call void @_ZNSaIcEC1Ev(ptr noundef nonnull align 1 dereferenceable(1) %5) #21
  %9 = invoke noundef ptr @_ZNSt7__cxx1112basic_stringIcSt11char_traitsIcESaIcEE13_M_local_dataEv(ptr noundef nonnull align 8 dereferenceable(32) %4)
          to label %.noexc unwind label %12

.noexc:                                           ; preds = %.critedge
  invoke void @_ZNSt7__cxx1112basic_stringIcSt11char_traitsIcESaIcEE12_Alloc_hiderC1EPcRKS3_(ptr noundef nonnull align 8 dereferenceable(32) %4, ptr noundef %9, ptr noundef nonnull align 1 dereferenceable(1) %5)
          to label %.noexc11 unwind label %12

.noexc11:                                         ; preds = %.noexc
  invoke void @_ZNSt7__cxx1112basic_stringIcSt11char_traitsIcESaIcEE12_M_constructIPKcEEvT_S8_St20forward_iterator_tag(ptr noundef nonnull align 8 dereferenceable(32) %4, ptr noundef nonnull @.str.7, ptr noundef nonnull getelementptr inbounds nuw (i8, ptr @.str.7, i64 23))
          to label %_ZNSt7__cxx1112basic_stringIcSt11char_traitsIcESaIcEEC2IS3_EEPKcRKS3_.exit unwind label %10

10:                                               ; preds = %.noexc11
  %11 = landingpad { ptr, i32 }
          cleanup
  call void @_ZNSaIcED2Ev(ptr noundef nonnull align 8 dereferenceable(32) %4) #21
  br label %.body

_ZNSt7__cxx1112basic_stringIcSt11char_traitsIcESaIcEEC2IS3_EEPKcRKS3_.exit: ; preds = %.noexc11
  invoke void @_ZN10cmMakefile18AddCacheDefinitionERKNSt7__cxx1112basic_stringIcSt11char_traitsIcESaIcEEE7cmValueS8_N12cmStateEnums14CacheEntryTypeEb(ptr noundef nonnull align 8 dereferenceable(3520) %0, ptr noundef nonnull align 8 dereferenceable(32) %1, ptr nonnull align 8 dereferenceable(32) %2, ptr nonnull align 8 dereferenceable(32) %4, i32 noundef 5, i1 noundef zeroext false)
          to label %_ZN10cmMakefile18AddCacheDefinitionERKNSt7__cxx1112basic_stringIcSt11char_traitsIcESaIcEEES7_S7_N12cmStateEnums14CacheEntryTypeEb.exit unwind label %14

_ZN10cmMakefile18AddCacheDefinitionERKNSt7__cxx1112basic_stringIcSt11char_traitsIcESaIcEEES7_S7_N12cmStateEnums14CacheEntryTypeEb.exit: ; preds = %_ZNSt7__cxx1112basic_stringIcSt11char_traitsIcESaIcEEC2IS3_EEPKcRKS3_.exit
  call void @_ZNSt7__cxx1112basic_stringIcSt11char_traitsIcESaIcEED1Ev(ptr noundef nonnull align 8 dereferenceable(32) %4) #21
  call void @_ZNSaIcED1Ev(ptr noundef nonnull align 1 dereferenceable(1) %5) #21
  br label %16

12:                                               ; preds = %.noexc, %.critedge
  %13 = landingpad { ptr, i32 }
          cleanup
  br label %.body

14:                                               ; preds = %_ZNSt7__cxx1112basic_stringIcSt11char_traitsIcESaIcEEC2IS3_EEPKcRKS3_.exit
  %15 = landingpad { ptr, i32 }
          cleanup
  call void @_ZNSt7__cxx1112basic_stringIcSt11char_traitsIcESaIcEED1Ev(ptr noundef nonnull align 8 dereferenceable(32) %4) #21
  br label %.body

.body:                                            ; preds = %12, %10, %14
  %.pn = phi { ptr, i32 } [ %15, %14 ], [ %13, %12 ], [ %11, %10 ]
  call void @_ZNSaIcED1Ev(ptr noundef nonnull align 1 dereferenceable(1) %5) #21
  resume { ptr, i32 } %.pn

16:                                               ; preds = %_ZN10cmMakefile18AddCacheDefinitionERKNSt7__cxx1112basic_stringIcSt11char_traitsIcESaIcEEES7_S7_N12cmStateEnums14CacheEntryTypeEb.exit, %7
  ret void
}